; Function Attrs: mustprogress uwtable
define void @_ZN3gmx19StatePropagatorData12copyPositionEv(ptr noundef nonnull align 8 dereferenceable(632) %0) local_unnamed_addr #0 align 2 {
  %2 = alloca i32, align 4
  %3 = tail call i32 @__kmpc_global_thread_num(ptr nonnull @2)
  %4 = tail call noundef i32 @_Z20gmx_omp_nthreads_get17ModuleMultiThread(i32 noundef 6)
  store i32 %4, ptr %2, align 4
  tail call void @__kmpc_push_num_threads(ptr nonnull @2, i32 %3, i32 %4)
  call void (ptr, i32, ptr, ...) @__kmpc_fork_call(ptr nonnull @2, i32 2, ptr nonnull @_ZN3gmx19StatePropagatorData12copyPositionEv.omp_outlined, ptr nonnull %2, ptr nonnull %0)
  %5 = getelementptr inbounds i8, ptr %0, i64 272
  %6 = getelementptr inbounds i8, ptr %0, i64 308
  %7 = load <8 x float>, ptr %5, align 8
  store <8 x float> %7, ptr %6, align 4
  %8 = getelementptr inbounds i8, ptr %0, i64 304
  %9 = load float, ptr %8, align 8
  %10 = getelementptr inbounds i8, ptr %0, i64 340
  store float %9, ptr %10, align 4
  ret void
}